; ModuleID = '17/817.c'
source_filename = "17/817.c"
target datalayout = "e-m:e-p270:32:32-p271:32:32-p272:64:64-i64:64-f80:128-n8:16:32:64-S128"
target triple = "x86_64-pc-linux-gnu"

@.str = private unnamed_addr constant [3 x i8] c"%d\00", align 1
@.str.1 = private unnamed_addr constant [3 x i8] c"%s\00", align 1
@.str.2 = private unnamed_addr constant [4 x i8] c"%s\0A\00", align 1

; Function Attrs: noinline nounwind uwtable
define dso_local void @zhengli(i8* %0) #0 {
  %2 = alloca i8*, align 8
  %3 = alloca i32, align 4
  %4 = alloca i32, align 4
  %5 = alloca i32, align 4
  store i8* %0, i8** %2, align 8
  %6 = load i8*, i8** %2, align 8
  %7 = call i64 @strlen(i8* %6) #4
  %8 = trunc i64 %7 to i32
  store i32 %8, i32* %4, align 4
  store i32 0, i32* %5, align 4
  br label %9

9:                                                ; preds = %50, %1
  %10 = load i32, i32* %5, align 4
  %11 = icmp slt i32 %10, 50
  br i1 %11, label %12, label %53

12:                                               ; preds = %9
  store i32 0, i32* %3, align 4
  br label %13

13:                                               ; preds = %45, %12
  %14 = load i32, i32* %3, align 4
  %15 = load i32, i32* %4, align 4
  %16 = icmp slt i32 %14, %15
  br i1 %16, label %17, label %48

17:                                               ; preds = %13
  %18 = load i8*, i8** %2, align 8
  %19 = load i32, i32* %3, align 4
  %20 = sext i32 %19 to i64
  %21 = getelementptr inbounds i8, i8* %18, i64 %20
  %22 = load i8, i8* %21, align 1
  %23 = sext i8 %22 to i32
  %24 = icmp eq i32 %23, 36
  br i1 %24, label %25, label %30

25:                                               ; preds = %17
  %26 = load i8*, i8** %2, align 8
  %27 = load i32, i32* %3, align 4
  %28 = sext i32 %27 to i64
  %29 = getelementptr inbounds i8, i8* %26, i64 %28
  store i8 40, i8* %29, align 1
  br label %44

30:                                               ; preds = %17
  %31 = load i8*, i8** %2, align 8
  %32 = load i32, i32* %3, align 4
  %33 = sext i32 %32 to i64
  %34 = getelementptr inbounds i8, i8* %31, i64 %33
  %35 = load i8, i8* %34, align 1
  %36 = sext i8 %35 to i32
  %37 = icmp eq i32 %36, 63
  br i1 %37, label %38, label %43

38:                                               ; preds = %30
  %39 = load i8*, i8** %2, align 8
  %40 = load i32, i32* %3, align 4
  %41 = sext i32 %40 to i64
  %42 = getelementptr inbounds i8, i8* %39, i64 %41
  store i8 41, i8* %42, align 1
  br label %43

43:                                               ; preds = %38, %30
  br label %44

44:                                               ; preds = %43, %25
  br label %45

45:                                               ; preds = %44
  %46 = load i32, i32* %3, align 4
  %47 = add nsw i32 %46, 1
  store i32 %47, i32* %3, align 4
  br label %13

48:                                               ; preds = %13
  %49 = load i8*, i8** %2, align 8
  call void @panduan(i8* %49)
  br label %50

50:                                               ; preds = %48
  %51 = load i32, i32* %5, align 4
  %52 = add nsw i32 %51, 1
  store i32 %52, i32* %5, align 4
  br label %9

53:                                               ; preds = %9
  ret void
}

; Function Attrs: nounwind readonly
declare dso_local i64 @strlen(i8*) #1

; Function Attrs: noinline nounwind uwtable
define dso_local void @panduan(i8* %0) #0 {
  %2 = alloca i8*, align 8
  %3 = alloca i32, align 4
  %4 = alloca i32, align 4
  %5 = alloca i32, align 4
  %6 = alloca i32, align 4
  %7 = alloca [110 x i8], align 16
  store i8* %0, i8** %2, align 8
  store i32 0, i32* %5, align 4
  %8 = load i8*, i8** %2, align 8
  %9 = call i64 @strlen(i8* %8) #4
  %10 = trunc i64 %9 to i32
  store i32 %10, i32* %4, align 4
  %11 = load i32, i32* %4, align 4
  %12 = sext i32 %11 to i64
  %13 = getelementptr inbounds [110 x i8], [110 x i8]* %7, i64 0, i64 %12
  store i8 0, i8* %13, align 1
  store i32 0, i32* %3, align 4
  br label %14

14:                                               ; preds = %80, %1
  %15 = load i32, i32* %3, align 4
  %16 = load i32, i32* %4, align 4
  %17 = icmp slt i32 %15, %16
  br i1 %17, label %18, label %83

18:                                               ; preds = %14
  %19 = load i8*, i8** %2, align 8
  %20 = load i32, i32* %3, align 4
  %21 = sext i32 %20 to i64
  %22 = getelementptr inbounds i8, i8* %19, i64 %21
  %23 = load i8, i8* %22, align 1
  %24 = sext i8 %23 to i32
  %25 = icmp ne i32 %24, 40
  br i1 %25, label %26, label %38

26:                                               ; preds = %18
  %27 = load i8*, i8** %2, align 8
  %28 = load i32, i32* %3, align 4
  %29 = sext i32 %28 to i64
  %30 = getelementptr inbounds i8, i8* %27, i64 %29
  %31 = load i8, i8* %30, align 1
  %32 = sext i8 %31 to i32
  %33 = icmp ne i32 %32, 41
  br i1 %33, label %34, label %38

34:                                               ; preds = %26
  %35 = load i32, i32* %3, align 4
  %36 = sext i32 %35 to i64
  %37 = getelementptr inbounds [110 x i8], [110 x i8]* %7, i64 0, i64 %36
  store i8 32, i8* %37, align 1
  br label %79

38:                                               ; preds = %26, %18
  %39 = load i8*, i8** %2, align 8
  %40 = load i32, i32* %3, align 4
  %41 = sext i32 %40 to i64
  %42 = getelementptr inbounds i8, i8* %39, i64 %41
  %43 = load i8, i8* %42, align 1
  %44 = sext i8 %43 to i32
  %45 = icmp eq i32 %44, 40
  br i1 %45, label %46, label %63

46:                                               ; preds = %38
  %47 = load i32, i32* %5, align 4
  %48 = icmp eq i32 %47, 1
  br i1 %48, label %49, label %57

49:                                               ; preds = %46
  %50 = load i32, i32* %6, align 4
  %51 = sext i32 %50 to i64
  %52 = getelementptr inbounds [110 x i8], [110 x i8]* %7, i64 0, i64 %51
  store i8 36, i8* %52, align 1
  %53 = load i32, i32* %3, align 4
  store i32 %53, i32* %6, align 4
  %54 = load i32, i32* %6, align 4
  %55 = sext i32 %54 to i64
  %56 = getelementptr inbounds [110 x i8], [110 x i8]* %7, i64 0, i64 %55
  store i8 36, i8* %56, align 1
  br label %62

57:                                               ; preds = %46
  store i32 1, i32* %5, align 4
  %58 = load i32, i32* %3, align 4
  store i32 %58, i32* %6, align 4
  %59 = load i32, i32* %6, align 4
  %60 = sext i32 %59 to i64
  %61 = getelementptr inbounds [110 x i8], [110 x i8]* %7, i64 0, i64 %60
  store i8 36, i8* %61, align 1
  br label %62

62:                                               ; preds = %57, %49
  br label %78

63:                                               ; preds = %38
  %64 = load i32, i32* %5, align 4
  %65 = icmp eq i32 %64, 1
  br i1 %65, label %66, label %73

66:                                               ; preds = %63
  %67 = load i32, i32* %6, align 4
  %68 = sext i32 %67 to i64
  %69 = getelementptr inbounds [110 x i8], [110 x i8]* %7, i64 0, i64 %68
  store i8 32, i8* %69, align 1
  store i32 0, i32* %5, align 4
  %70 = load i32, i32* %3, align 4
  %71 = sext i32 %70 to i64
  %72 = getelementptr inbounds [110 x i8], [110 x i8]* %7, i64 0, i64 %71
  store i8 32, i8* %72, align 1
  br label %77

73:                                               ; preds = %63
  %74 = load i32, i32* %3, align 4
  %75 = sext i32 %74 to i64
  %76 = getelementptr inbounds [110 x i8], [110 x i8]* %7, i64 0, i64 %75
  store i8 63, i8* %76, align 1
  br label %77

77:                                               ; preds = %73, %66
  br label %78

78:                                               ; preds = %77, %62
  br label %79

79:                                               ; preds = %78, %34
  br label %80

80:                                               ; preds = %79
  %81 = load i32, i32* %3, align 4
  %82 = add nsw i32 %81, 1
  store i32 %82, i32* %3, align 4
  br label %14

83:                                               ; preds = %14
  %84 = load i8*, i8** %2, align 8
  %85 = getelementptr inbounds [110 x i8], [110 x i8]* %7, i64 0, i64 0
  %86 = call i8* @strcpy(i8* %84, i8* %85) #5
  ret void
}

; Function Attrs: nounwind
declare dso_local i8* @strcpy(i8*, i8*) #2

; Function Attrs: noinline nounwind uwtable
define dso_local void @main() #0 {
  %1 = alloca i32, align 4
  %2 = alloca i32, align 4
  %3 = alloca [110 x i8], align 16
  %4 = call i32 (i8*, ...) @__isoc99_scanf(i8* getelementptr inbounds ([3 x i8], [3 x i8]* @.str, i64 0, i64 0), i32* %2)
  store i32 0, i32* %1, align 4
  br label %5

5:                                                ; preds = %18, %0
  %6 = load i32, i32* %1, align 4
  %7 = load i32, i32* %2, align 4
  %8 = icmp slt i32 %6, %7
  br i1 %8, label %9, label %21

9:                                                ; preds = %5
  %10 = getelementptr inbounds [110 x i8], [110 x i8]* %3, i64 0, i64 0
  %11 = call i32 (i8*, ...) @__isoc99_scanf(i8* getelementptr inbounds ([3 x i8], [3 x i8]* @.str.1, i64 0, i64 0), i8* %10)
  %12 = getelementptr inbounds [110 x i8], [110 x i8]* %3, i64 0, i64 0
  %13 = call i32 (i8*, ...) @printf(i8* getelementptr inbounds ([4 x i8], [4 x i8]* @.str.2, i64 0, i64 0), i8* %12)
  %14 = getelementptr inbounds [110 x i8], [110 x i8]* %3, i64 0, i64 0
  call void @panduan(i8* %14)
  %15 = getelementptr inbounds [110 x i8], [110 x i8]* %3, i64 0, i64 0
  call void @zhengli(i8* %15)
  %16 = getelementptr inbounds [110 x i8], [110 x i8]* %3, i64 0, i64 0
  %17 = call i32 (i8*, ...) @printf(i8* getelementptr inbounds ([4 x i8], [4 x i8]* @.str.2, i64 0, i64 0), i8* %16)
  br label %18

18:                                               ; preds = %9
  %19 = load i32, i32* %1, align 4
  %20 = add nsw i32 %19, 1
  store i32 %20, i32* %1, align 4
  br label %5

21:                                               ; preds = %5
  ret void
}

declare dso_local i32 @__isoc99_scanf(i8*, ...) #3

declare dso_local i32 @printf(i8*, ...) #3


!llvm.module.flags = !{!0}
!llvm.ident = !{!1}

!0 = !{i32 1, !"wchar_size", i32 4}
!1 = !{!"clang version 10.0.0-4ubuntu1 "}
